; Function Attrs: mustprogress nofree norecurse nosync nounwind willreturn memory(none) uwtable
define dso_local range(i32 -1, 36) i32 @select_char2coord(i8 noundef signext %0) local_unnamed_addr #3 {
  %2 = sext i8 %0 to i32
  %3 = add i8 %0, -48
  %or.cond = icmp ult i8 %3, 10
  br i1 %or.cond, label %4, label %6

4:                                                ; preds = %1
  %5 = add nsw i32 %2, -48
  br label %9

6:                                                ; preds = %1
  %7 = add i8 %0, -65
  %or.cond5 = icmp ult i8 %7, 26
  %8 = add nsw i32 %2, -55
  %spec.select = select i1 %or.cond5, i32 %8, i32 -1
  br label %9

9:                                                ; preds = %6, %4
  %.0 = phi i32 [ %5, %4 ], [ %spec.select, %6 ]
  ret i32 %.0
}